target datalayout = "e-m:e-p270:32:32-p271:32:32-p272:64:64-i64:64-i128:128-f80:128-n8:16:32:64-S128"
target triple = "x86_64-pc-linux-gnu"

@Curl_cmalloc = external global ptr, align 8

; Function Attrs: nounwind uwtable
define internal i32 @base64_encode(ptr noundef %0, ptr noundef %1, i64 noundef %2, ptr noundef %3, ptr noundef %4) #0 {
  %6 = alloca i32, align 4
  %7 = alloca ptr, align 8
  %8 = alloca ptr, align 8
  %9 = alloca i64, align 8
  %10 = alloca ptr, align 8
  %11 = alloca ptr, align 8
  %12 = alloca ptr, align 8
  %13 = alloca ptr, align 8
  %14 = alloca ptr, align 8
  %15 = alloca ptr, align 8
  %16 = alloca i32, align 4
  store ptr %0, ptr %7, align 8, !tbaa !4
  store ptr %1, ptr %8, align 8, !tbaa !4
  store i64 %2, ptr %9, align 8, !tbaa !13
  store ptr %3, ptr %10, align 8, !tbaa !9
  store ptr %4, ptr %11, align 8, !tbaa !11
  call void @llvm.lifetime.start.p0(i64 8, ptr %12) #5
  call void @llvm.lifetime.start.p0(i64 8, ptr %13) #5
  call void @llvm.lifetime.start.p0(i64 8, ptr %14) #5
  %17 = load ptr, ptr %8, align 8, !tbaa !4
  store ptr %17, ptr %14, align 8, !tbaa !4
  call void @llvm.lifetime.start.p0(i64 8, ptr %15) #5
  %18 = load ptr, ptr %7, align 8, !tbaa !4
  %19 = getelementptr inbounds i8, ptr %18, i64 64
  store ptr %19, ptr %15, align 8, !tbaa !4
  %20 = load ptr, ptr %10, align 8, !tbaa !9
  store ptr null, ptr %20, align 8, !tbaa !4
  %21 = load ptr, ptr %11, align 8, !tbaa !11
  store i64 0, ptr %21, align 8, !tbaa !13
  %22 = load i64, ptr %9, align 8, !tbaa !13
  %23 = icmp ne i64 %22, 0
  br i1 %23, label %27, label %24

24:                                               ; preds = %5
  %25 = load ptr, ptr %8, align 8, !tbaa !4
  %26 = call i64 @strlen(ptr noundef %25) #6
  store i64 %26, ptr %9, align 8, !tbaa !13
  br label %27

27:                                               ; preds = %24, %5
  %28 = load ptr, ptr @Curl_cmalloc, align 8, !tbaa !18
  %29 = load i64, ptr %9, align 8, !tbaa !13
  %30 = add i64 %29, 2
  %31 = udiv i64 %30, 3
  %32 = mul i64 %31, 4
  %33 = add i64 %32, 1
  %34 = call ptr %28(i64 noundef %33)
  store ptr %34, ptr %12, align 8, !tbaa !4
  store ptr %34, ptr %13, align 8, !tbaa !4
  %35 = load ptr, ptr %12, align 8, !tbaa !4
  %36 = icmp ne ptr %35, null
  br i1 %36, label %38, label %37

37:                                               ; preds = %27
  store i32 27, ptr %6, align 4
  store i32 1, ptr %16, align 4
  br label %201

38:                                               ; preds = %27
  br label %39

39:                                               ; preds = %42, %38
  %40 = load i64, ptr %9, align 8, !tbaa !13
  %41 = icmp uge i64 %40, 3
  br i1 %41, label %42, label %106

42:                                               ; preds = %39
  %43 = load ptr, ptr %7, align 8, !tbaa !4
  %44 = load ptr, ptr %14, align 8, !tbaa !4
  %45 = getelementptr inbounds i8, ptr %44, i64 0
  %46 = load i8, ptr %45, align 1, !tbaa !15
  %47 = zext i8 %46 to i32
  %48 = ashr i32 %47, 2
  %49 = sext i32 %48 to i64
  %50 = getelementptr inbounds i8, ptr %43, i64 %49
  %51 = load i8, ptr %50, align 1, !tbaa !15
  %52 = load ptr, ptr %12, align 8, !tbaa !4
  %53 = getelementptr inbounds nuw i8, ptr %52, i32 1
  store ptr %53, ptr %12, align 8, !tbaa !4
  store i8 %51, ptr %52, align 1, !tbaa !15
  %54 = load ptr, ptr %7, align 8, !tbaa !4
  %55 = load ptr, ptr %14, align 8, !tbaa !4
  %56 = getelementptr inbounds i8, ptr %55, i64 0
  %57 = load i8, ptr %56, align 1, !tbaa !15
  %58 = zext i8 %57 to i32
  %59 = and i32 %58, 3
  %60 = shl i32 %59, 4
  %61 = load ptr, ptr %14, align 8, !tbaa !4
  %62 = getelementptr inbounds i8, ptr %61, i64 1
  %63 = load i8, ptr %62, align 1, !tbaa !15
  %64 = zext i8 %63 to i32
  %65 = ashr i32 %64, 4
  %66 = or i32 %60, %65
  %67 = sext i32 %66 to i64
  %68 = getelementptr inbounds i8, ptr %54, i64 %67
  %69 = load i8, ptr %68, align 1, !tbaa !15
  %70 = load ptr, ptr %12, align 8, !tbaa !4
  %71 = getelementptr inbounds nuw i8, ptr %70, i32 1
  store ptr %71, ptr %12, align 8, !tbaa !4
  store i8 %69, ptr %70, align 1, !tbaa !15
  %72 = load ptr, ptr %7, align 8, !tbaa !4
  %73 = load ptr, ptr %14, align 8, !tbaa !4
  %74 = getelementptr inbounds i8, ptr %73, i64 1
  %75 = load i8, ptr %74, align 1, !tbaa !15
  %76 = zext i8 %75 to i32
  %77 = and i32 %76, 15
  %78 = shl i32 %77, 2
  %79 = load ptr, ptr %14, align 8, !tbaa !4
  %80 = getelementptr inbounds i8, ptr %79, i64 2
  %81 = load i8, ptr %80, align 1, !tbaa !15
  %82 = zext i8 %81 to i32
  %83 = and i32 %82, 192
  %84 = ashr i32 %83, 6
  %85 = or i32 %78, %84
  %86 = sext i32 %85 to i64
  %87 = getelementptr inbounds i8, ptr %72, i64 %86
  %88 = load i8, ptr %87, align 1, !tbaa !15
  %89 = load ptr, ptr %12, align 8, !tbaa !4
  %90 = getelementptr inbounds nuw i8, ptr %89, i32 1
  store ptr %90, ptr %12, align 8, !tbaa !4
  store i8 %88, ptr %89, align 1, !tbaa !15
  %91 = load ptr, ptr %7, align 8, !tbaa !4
  %92 = load ptr, ptr %14, align 8, !tbaa !4
  %93 = getelementptr inbounds i8, ptr %92, i64 2
  %94 = load i8, ptr %93, align 1, !tbaa !15
  %95 = zext i8 %94 to i32
  %96 = and i32 %95, 63
  %97 = sext i32 %96 to i64
  %98 = getelementptr inbounds i8, ptr %91, i64 %97
  %99 = load i8, ptr %98, align 1, !tbaa !15
  %100 = load ptr, ptr %12, align 8, !tbaa !4
  %101 = getelementptr inbounds nuw i8, ptr %100, i32 1
  store ptr %101, ptr %12, align 8, !tbaa !4
  store i8 %99, ptr %100, align 1, !tbaa !15
  %102 = load i64, ptr %9, align 8, !tbaa !13
  %103 = sub i64 %102, 3
  store i64 %103, ptr %9, align 8, !tbaa !13
  %104 = load ptr, ptr %14, align 8, !tbaa !4
  %105 = getelementptr inbounds i8, ptr %104, i64 3
  store ptr %105, ptr %14, align 8, !tbaa !4
  br label %39, !llvm.loop !24

106:                                              ; preds = %39
  %107 = load i64, ptr %9, align 8, !tbaa !13
  %108 = icmp ne i64 %107, 0
  br i1 %108, label %109, label %191

109:                                              ; preds = %106
  %110 = load ptr, ptr %7, align 8, !tbaa !4
  %111 = load ptr, ptr %14, align 8, !tbaa !4
  %112 = getelementptr inbounds i8, ptr %111, i64 0
  %113 = load i8, ptr %112, align 1, !tbaa !15
  %114 = zext i8 %113 to i32
  %115 = ashr i32 %114, 2
  %116 = sext i32 %115 to i64
  %117 = getelementptr inbounds i8, ptr %110, i64 %116
  %118 = load i8, ptr %117, align 1, !tbaa !15
  %119 = load ptr, ptr %12, align 8, !tbaa !4
  %120 = getelementptr inbounds nuw i8, ptr %119, i32 1
  store ptr %120, ptr %12, align 8, !tbaa !4
  store i8 %118, ptr %119, align 1, !tbaa !15
  %121 = load i64, ptr %9, align 8, !tbaa !13
  %122 = icmp eq i64 %121, 1
  br i1 %122, label %123, label %149

123:                                              ; preds = %109
  %124 = load ptr, ptr %7, align 8, !tbaa !4
  %125 = load ptr, ptr %14, align 8, !tbaa !4
  %126 = getelementptr inbounds i8, ptr %125, i64 0
  %127 = load i8, ptr %126, align 1, !tbaa !15
  %128 = zext i8 %127 to i32
  %129 = and i32 %128, 3
  %130 = shl i32 %129, 4
  %131 = sext i32 %130 to i64
  %132 = getelementptr inbounds i8, ptr %124, i64 %131
  %133 = load i8, ptr %132, align 1, !tbaa !15
  %134 = load ptr, ptr %12, align 8, !tbaa !4
  %135 = getelementptr inbounds nuw i8, ptr %134, i32 1
  store ptr %135, ptr %12, align 8, !tbaa !4
  store i8 %133, ptr %134, align 1, !tbaa !15
  %136 = load ptr, ptr %15, align 8, !tbaa !4
  %137 = load i8, ptr %136, align 1, !tbaa !15
  %138 = icmp ne i8 %137, 0
  br i1 %138, label %139, label %148

139:                                              ; preds = %123
  %140 = load ptr, ptr %15, align 8, !tbaa !4
  %141 = load i8, ptr %140, align 1, !tbaa !15
  %142 = load ptr, ptr %12, align 8, !tbaa !4
  %143 = getelementptr inbounds nuw i8, ptr %142, i32 1
  store ptr %143, ptr %12, align 8, !tbaa !4
  store i8 %141, ptr %142, align 1, !tbaa !15
  %144 = load ptr, ptr %15, align 8, !tbaa !4
  %145 = load i8, ptr %144, align 1, !tbaa !15
  %146 = load ptr, ptr %12, align 8, !tbaa !4
  %147 = getelementptr inbounds nuw i8, ptr %146, i32 1
  store ptr %147, ptr %12, align 8, !tbaa !4
  store i8 %145, ptr %146, align 1, !tbaa !15
  br label %148

148:                                              ; preds = %139, %123
  br label %190

149:                                              ; preds = %109
  %150 = load ptr, ptr %7, align 8, !tbaa !4
  %151 = load ptr, ptr %14, align 8, !tbaa !4
  %152 = getelementptr inbounds i8, ptr %151, i64 0
  %153 = load i8, ptr %152, align 1, !tbaa !15
  %154 = zext i8 %153 to i32
  %155 = and i32 %154, 3
  %156 = shl i32 %155, 4
  %157 = load ptr, ptr %14, align 8, !tbaa !4
  %158 = getelementptr inbounds i8, ptr %157, i64 1
  %159 = load i8, ptr %158, align 1, !tbaa !15
  %160 = zext i8 %159 to i32
  %161 = and i32 %160, 240
  %162 = ashr i32 %161, 4
  %163 = or i32 %156, %162
  %164 = sext i32 %163 to i64
  %165 = getelementptr inbounds i8, ptr %150, i64 %164
  %166 = load i8, ptr %165, align 1, !tbaa !15
  %167 = load ptr, ptr %12, align 8, !tbaa !4
  %168 = getelementptr inbounds nuw i8, ptr %167, i32 1
  store ptr %168, ptr %12, align 8, !tbaa !4
  store i8 %166, ptr %167, align 1, !tbaa !15
  %169 = load ptr, ptr %7, align 8, !tbaa !4
  %170 = load ptr, ptr %14, align 8, !tbaa !4
  %171 = getelementptr inbounds i8, ptr %170, i64 1
  %172 = load i8, ptr %171, align 1, !tbaa !15
  %173 = zext i8 %172 to i32
  %174 = and i32 %173, 15
  %175 = shl i32 %174, 2
  %176 = sext i32 %175 to i64
  %177 = getelementptr inbounds i8, ptr %169, i64 %176
  %178 = load i8, ptr %177, align 1, !tbaa !15
  %179 = load ptr, ptr %12, align 8, !tbaa !4
  %180 = getelementptr inbounds nuw i8, ptr %179, i32 1
  store ptr %180, ptr %12, align 8, !tbaa !4
  store i8 %178, ptr %179, align 1, !tbaa !15
  %181 = load ptr, ptr %15, align 8, !tbaa !4
  %182 = load i8, ptr %181, align 1, !tbaa !15
  %183 = icmp ne i8 %182, 0
  br i1 %183, label %184, label %189

184:                                              ; preds = %149
  %185 = load ptr, ptr %15, align 8, !tbaa !4
  %186 = load i8, ptr %185, align 1, !tbaa !15
  %187 = load ptr, ptr %12, align 8, !tbaa !4
  %188 = getelementptr inbounds nuw i8, ptr %187, i32 1
  store ptr %188, ptr %12, align 8, !tbaa !4
  store i8 %186, ptr %187, align 1, !tbaa !15
  br label %189

189:                                              ; preds = %184, %149
  br label %190

190:                                              ; preds = %189, %148
  br label %191

191:                                              ; preds = %190, %106
  %192 = load ptr, ptr %12, align 8, !tbaa !4
  store i8 0, ptr %192, align 1, !tbaa !15
  %193 = load ptr, ptr %13, align 8, !tbaa !4
  %194 = load ptr, ptr %10, align 8, !tbaa !9
  store ptr %193, ptr %194, align 8, !tbaa !4
  %195 = load ptr, ptr %12, align 8, !tbaa !4
  %196 = load ptr, ptr %13, align 8, !tbaa !4
  %197 = ptrtoint ptr %195 to i64
  %198 = ptrtoint ptr %196 to i64
  %199 = sub i64 %197, %198
  %200 = load ptr, ptr %11, align 8, !tbaa !11
  store i64 %199, ptr %200, align 8, !tbaa !13
  store i32 0, ptr %6, align 4
  store i32 1, ptr %16, align 4
  br label %201

201:                                              ; preds = %191, %37
  call void @llvm.lifetime.end.p0(i64 8, ptr %15) #5
  call void @llvm.lifetime.end.p0(i64 8, ptr %14) #5
  call void @llvm.lifetime.end.p0(i64 8, ptr %13) #5
  call void @llvm.lifetime.end.p0(i64 8, ptr %12) #5
  %202 = load i32, ptr %6, align 4
  ret i32 %202
}