; Function Attrs: nounwind uwtable
define internal fastcc range(i32 0, 28) i32 @base64_encode(ptr noundef readonly captures(none) %0, ptr noundef readonly captures(none) %1, i64 noundef %2, ptr noundef writeonly captures(none) initializes((0, 8)) %3, ptr noundef writeonly captures(none) initializes((0, 8)) %4) unnamed_addr #0 {
  %6 = getelementptr inbounds nuw i8, ptr %0, i64 64
  store ptr null, ptr %3, align 8, !tbaa !4
  store i64 0, ptr %4, align 8, !tbaa !9
  %.not = icmp eq i64 %2, 0
  br i1 %.not, label %7, label %9

7:                                                ; preds = %5
  %8 = tail call i64 @strlen(ptr noundef nonnull dereferenceable(1) %1) #6
  br label %9

9:                                                ; preds = %7, %5
  %.055 = phi i64 [ %2, %5 ], [ %8, %7 ]
  %10 = load ptr, ptr @Curl_cmalloc, align 8, !tbaa !14
  %11 = add i64 %.055, 2
  %12 = udiv i64 %11, 3
  %13 = shl i64 %12, 2
  %14 = or disjoint i64 %13, 1
  %15 = tail call ptr %10(i64 noundef %14) #5
  %.not62 = icmp eq ptr %15, null
  br i1 %.not62, label %98, label %.preheader

.preheader:                                       ; preds = %9
  %16 = icmp ugt i64 %.055, 2
  br i1 %16, label %.lr.ph, label %._crit_edge

.lr.ph:                                           ; preds = %.preheader, %.lr.ph
  %.05468 = phi ptr [ %52, %.lr.ph ], [ %1, %.preheader ]
  %.167 = phi i64 [ %51, %.lr.ph ], [ %.055, %.preheader ]
  %.05666 = phi ptr [ %50, %.lr.ph ], [ %15, %.preheader ]
  %17 = load i8, ptr %.05468, align 1, !tbaa !11
  %18 = lshr i8 %17, 2
  %19 = zext nneg i8 %18 to i64
  %20 = getelementptr inbounds nuw i8, ptr %0, i64 %19
  %21 = load i8, ptr %20, align 1, !tbaa !11
  %22 = getelementptr inbounds nuw i8, ptr %.05666, i64 1
  store i8 %21, ptr %.05666, align 1, !tbaa !11
  %23 = load i8, ptr %.05468, align 1, !tbaa !11
  %24 = shl i8 %23, 4
  %25 = and i8 %24, 48
  %26 = getelementptr inbounds nuw i8, ptr %.05468, i64 1
  %27 = load i8, ptr %26, align 1, !tbaa !11
  %28 = lshr i8 %27, 4
  %29 = or disjoint i8 %25, %28
  %30 = zext nneg i8 %29 to i64
  %31 = getelementptr inbounds nuw i8, ptr %0, i64 %30
  %32 = load i8, ptr %31, align 1, !tbaa !11
  %33 = getelementptr inbounds nuw i8, ptr %.05666, i64 2
  store i8 %32, ptr %22, align 1, !tbaa !11
  %34 = load i8, ptr %26, align 1, !tbaa !11
  %35 = shl i8 %34, 2
  %36 = and i8 %35, 60
  %37 = getelementptr inbounds nuw i8, ptr %.05468, i64 2
  %38 = load i8, ptr %37, align 1, !tbaa !11
  %39 = lshr i8 %38, 6
  %40 = or disjoint i8 %36, %39
  %41 = zext nneg i8 %40 to i64
  %42 = getelementptr inbounds nuw i8, ptr %0, i64 %41
  %43 = load i8, ptr %42, align 1, !tbaa !11
  %44 = getelementptr inbounds nuw i8, ptr %.05666, i64 3
  store i8 %43, ptr %33, align 1, !tbaa !11
  %45 = load i8, ptr %37, align 1, !tbaa !11
  %46 = and i8 %45, 63
  %47 = zext nneg i8 %46 to i64
  %48 = getelementptr inbounds nuw i8, ptr %0, i64 %47
  %49 = load i8, ptr %48, align 1, !tbaa !11
  %50 = getelementptr inbounds nuw i8, ptr %.05666, i64 4
  store i8 %49, ptr %44, align 1, !tbaa !11
  %51 = add i64 %.167, -3
  %52 = getelementptr inbounds nuw i8, ptr %.05468, i64 3
  %53 = icmp ugt i64 %51, 2
  br i1 %53, label %.lr.ph, label %._crit_edge, !llvm.loop !18

._crit_edge:                                      ; preds = %.lr.ph, %.preheader
  %.056.lcssa = phi ptr [ %15, %.preheader ], [ %50, %.lr.ph ]
  %.1.lcssa = phi i64 [ %.055, %.preheader ], [ %51, %.lr.ph ]
  %.054.lcssa = phi ptr [ %1, %.preheader ], [ %52, %.lr.ph ]
  %.not63 = icmp eq i64 %.1.lcssa, 0
  br i1 %.not63, label %94, label %54

54:                                               ; preds = %._crit_edge
  %55 = load i8, ptr %.054.lcssa, align 1, !tbaa !11
  %56 = lshr i8 %55, 2
  %57 = zext nneg i8 %56 to i64
  %58 = getelementptr inbounds nuw i8, ptr %0, i64 %57
  %59 = load i8, ptr %58, align 1, !tbaa !11
  %60 = getelementptr inbounds nuw i8, ptr %.056.lcssa, i64 1
  store i8 %59, ptr %.056.lcssa, align 1, !tbaa !11
  %61 = icmp eq i64 %.1.lcssa, 1
  %62 = load i8, ptr %.054.lcssa, align 1, !tbaa !11
  %63 = shl i8 %62, 4
  %64 = and i8 %63, 48
  br i1 %61, label %65, label %75

65:                                               ; preds = %54
  %66 = zext nneg i8 %64 to i64
  %67 = getelementptr inbounds nuw i8, ptr %0, i64 %66
  %68 = load i8, ptr %67, align 1, !tbaa !11
  %69 = getelementptr inbounds nuw i8, ptr %.056.lcssa, i64 2
  store i8 %68, ptr %60, align 1, !tbaa !11
  %70 = load i8, ptr %6, align 1, !tbaa !11
  %.not65 = icmp eq i8 %70, 0
  br i1 %.not65, label %94, label %71

71:                                               ; preds = %65
  %72 = getelementptr inbounds nuw i8, ptr %.056.lcssa, i64 3
  store i8 %70, ptr %69, align 1, !tbaa !11
  %73 = load i8, ptr %6, align 1, !tbaa !11
  %74 = getelementptr inbounds nuw i8, ptr %.056.lcssa, i64 4
  store i8 %73, ptr %72, align 1, !tbaa !11
  br label %94

75:                                               ; preds = %54
  %76 = getelementptr inbounds nuw i8, ptr %.054.lcssa, i64 1
  %77 = load i8, ptr %76, align 1, !tbaa !11
  %78 = lshr i8 %77, 4
  %79 = or disjoint i8 %64, %78
  %80 = zext nneg i8 %79 to i64
  %81 = getelementptr inbounds nuw i8, ptr %0, i64 %80
  %82 = load i8, ptr %81, align 1, !tbaa !11
  %83 = getelementptr inbounds nuw i8, ptr %.056.lcssa, i64 2
  store i8 %82, ptr %60, align 1, !tbaa !11
  %84 = load i8, ptr %76, align 1, !tbaa !11
  %85 = shl i8 %84, 2
  %86 = and i8 %85, 60
  %87 = zext nneg i8 %86 to i64
  %88 = getelementptr inbounds nuw i8, ptr %0, i64 %87
  %89 = load i8, ptr %88, align 1, !tbaa !11
  %90 = getelementptr inbounds nuw i8, ptr %.056.lcssa, i64 3
  store i8 %89, ptr %83, align 1, !tbaa !11
  %91 = load i8, ptr %6, align 1, !tbaa !11
  %.not64 = icmp eq i8 %91, 0
  br i1 %.not64, label %94, label %92

92:                                               ; preds = %75
  %93 = getelementptr inbounds nuw i8, ptr %.056.lcssa, i64 4
  store i8 %91, ptr %90, align 1, !tbaa !11
  br label %94

94:                                               ; preds = %71, %65, %92, %75, %._crit_edge
  %.157 = phi ptr [ %74, %71 ], [ %69, %65 ], [ %93, %92 ], [ %90, %75 ], [ %.056.lcssa, %._crit_edge ]
  store i8 0, ptr %.157, align 1, !tbaa !11
  store ptr %15, ptr %3, align 8, !tbaa !4
  %95 = ptrtoint ptr %.157 to i64
  %96 = ptrtoint ptr %15 to i64
  %97 = sub i64 %95, %96
  store i64 %97, ptr %4, align 8, !tbaa !9
  br label %98

98:                                               ; preds = %9, %94
  %.0 = phi i32 [ 0, %94 ], [ 27, %9 ]
  ret i32 %.0
}